target datalayout = "e-m:e-p270:32:32-p271:32:32-p272:64:64-i64:64-i128:128-f80:128-n8:16:32:64-S128"
target triple = "x86_64-pc-linux-gnu"

%"class.absl::str_format_internal::FormatConversionSpecImpl" = type { i8, i8, i8, i32, i32 }
%"class.std::basic_string_view" = type { i64, ptr }
%"class.absl::str_format_internal::FormatSinkImpl" = type { %"class.absl::str_format_internal::FormatRawSinkImpl", i64, ptr, [1024 x i8] }
%"class.absl::str_format_internal::FormatRawSinkImpl" = type { ptr, ptr }
%class.anon = type { ptr, ptr }

; Function Attrs: mustprogress uwtable
define linkonce_odr dso_local void @_ZN4absl19str_format_internal17FormatRawSinkImpl5WriteESt17basic_string_viewIcSt11char_traitsIcEE(ptr noundef nonnull align 8 dereferenceable(16) %0, i64 %1, ptr %2) #0 comdat align 2 {
  %4 = alloca %"class.std::basic_string_view", align 8
  %5 = alloca ptr, align 8
  %6 = alloca %"class.std::basic_string_view", align 8
  %7 = getelementptr inbounds nuw { i64, ptr }, ptr %4, i32 0, i32 0
  store i64 %1, ptr %7, align 8
  %8 = getelementptr inbounds nuw { i64, ptr }, ptr %4, i32 0, i32 1
  store ptr %2, ptr %8, align 8
  store ptr %0, ptr %5, align 8, !tbaa !123
  %9 = load ptr, ptr %5, align 8
  %10 = getelementptr inbounds nuw %"class.absl::str_format_internal::FormatRawSinkImpl", ptr %9, i32 0, i32 1
  %11 = load ptr, ptr %10, align 8, !tbaa !125
  %12 = getelementptr inbounds nuw %"class.absl::str_format_internal::FormatRawSinkImpl", ptr %9, i32 0, i32 0
  %13 = load ptr, ptr %12, align 8, !tbaa !126
  call void @llvm.memcpy.p0.p0.i64(ptr align 8 %6, ptr align 8 %4, i64 16, i1 false), !tbaa.struct !48
  %14 = getelementptr inbounds nuw { i64, ptr }, ptr %6, i32 0, i32 0
  %15 = load i64, ptr %14, align 8
  %16 = getelementptr inbounds nuw { i64, ptr }, ptr %6, i32 0, i32 1
  %17 = load ptr, ptr %16, align 8
  call void %11(ptr noundef %13, i64 %15, ptr %17)
  ret void
}

; Function Attrs: mustprogress nounwind uwtable
define linkonce_odr dso_local void @_ZNSt17basic_string_viewIcSt11char_traitsIcEEC2EPKcm(ptr noundef nonnull align 8 dereferenceable(16) %0, ptr noundef %1, i64 noundef %2) unnamed_addr #3 comdat align 2 {
  %4 = alloca ptr, align 8
  %5 = alloca ptr, align 8
  %6 = alloca i64, align 8
  store ptr %0, ptr %4, align 8, !tbaa !104
  store ptr %1, ptr %5, align 8, !tbaa !35
  store i64 %2, ptr %6, align 8, !tbaa !26
  %7 = load ptr, ptr %4, align 8
  %8 = getelementptr inbounds nuw %"class.std::basic_string_view", ptr %7, i32 0, i32 0
  %9 = load i64, ptr %6, align 8, !tbaa !26
  store i64 %9, ptr %8, align 8, !tbaa !106
  %10 = getelementptr inbounds nuw %"class.std::basic_string_view", ptr %7, i32 0, i32 1
  %11 = load ptr, ptr %5, align 8, !tbaa !35
  store ptr %11, ptr %10, align 8, !tbaa !108
  ret void
}

; Function Attrs: mustprogress uwtable
define linkonce_odr dso_local void @_ZN4absl19str_format_internal14FormatSinkImpl5FlushEv(ptr noundef nonnull align 8 dereferenceable(1056) %0) #0 comdat align 2 {
  %2 = alloca ptr, align 8
  %3 = alloca %"class.std::basic_string_view", align 8
  store ptr %0, ptr %2, align 8, !tbaa !7
  %4 = load ptr, ptr %2, align 8
  %5 = getelementptr inbounds nuw %"class.absl::str_format_internal::FormatSinkImpl", ptr %4, i32 0, i32 0
  %6 = getelementptr inbounds nuw %"class.absl::str_format_internal::FormatSinkImpl", ptr %4, i32 0, i32 3
  %7 = getelementptr inbounds [1024 x i8], ptr %6, i64 0, i64 0
  %8 = getelementptr inbounds nuw %"class.absl::str_format_internal::FormatSinkImpl", ptr %4, i32 0, i32 2
  %9 = load ptr, ptr %8, align 8, !tbaa !49
  %10 = getelementptr inbounds nuw %"class.absl::str_format_internal::FormatSinkImpl", ptr %4, i32 0, i32 3
  %11 = getelementptr inbounds [1024 x i8], ptr %10, i64 0, i64 0
  %12 = ptrtoint ptr %9 to i64
  %13 = ptrtoint ptr %11 to i64
  %14 = sub i64 %12, %13
  call void @_ZNSt17basic_string_viewIcSt11char_traitsIcEEC2EPKcm(ptr noundef nonnull align 8 dereferenceable(16) %3, ptr noundef %7, i64 noundef %14) #16
  %15 = getelementptr inbounds nuw { i64, ptr }, ptr %3, i32 0, i32 0
  %16 = load i64, ptr %15, align 8
  %17 = getelementptr inbounds nuw { i64, ptr }, ptr %3, i32 0, i32 1
  %18 = load ptr, ptr %17, align 8
  call void @_ZN4absl19str_format_internal17FormatRawSinkImpl5WriteESt17basic_string_viewIcSt11char_traitsIcEE(ptr noundef nonnull align 8 dereferenceable(16) %5, i64 %16, ptr %18)
  %19 = getelementptr inbounds nuw %"class.absl::str_format_internal::FormatSinkImpl", ptr %4, i32 0, i32 3
  %20 = getelementptr inbounds [1024 x i8], ptr %19, i64 0, i64 0
  %21 = getelementptr inbounds nuw %"class.absl::str_format_internal::FormatSinkImpl", ptr %4, i32 0, i32 2
  store ptr %20, ptr %21, align 8, !tbaa !49
  ret void
}

; Function Attrs: inlinehint mustprogress nounwind uwtable
define linkonce_odr dso_local void @_ZZN4absl19str_format_internal14FormatSinkImpl6AppendEmcENKUlmE_clEm(ptr noundef nonnull align 8 dereferenceable(16) %0, i64 noundef %1) #9 comdat align 2 {
  %3 = alloca ptr, align 8
  %4 = alloca i64, align 8
  store ptr %0, ptr %3, align 8, !tbaa !67
  store i64 %1, ptr %4, align 8, !tbaa !26
  %5 = load ptr, ptr %3, align 8
  %6 = getelementptr inbounds nuw %class.anon, ptr %5, i32 0, i32 0
  %7 = load ptr, ptr %6, align 8, !tbaa !130
  %8 = getelementptr inbounds nuw %"class.absl::str_format_internal::FormatSinkImpl", ptr %7, i32 0, i32 2
  %9 = load ptr, ptr %8, align 8, !tbaa !49
  %10 = getelementptr inbounds nuw %class.anon, ptr %5, i32 0, i32 1
  %11 = load ptr, ptr %10, align 8, !tbaa !133
  %12 = load i8, ptr %11, align 1, !tbaa !4
  %13 = sext i8 %12 to i32
  %14 = trunc i32 %13 to i8
  %15 = load i64, ptr %4, align 8, !tbaa !26
  call void @llvm.memset.p0.i64(ptr align 1 %9, i8 %14, i64 %15, i1 false)
  %16 = load i64, ptr %4, align 8, !tbaa !26
  %17 = getelementptr inbounds nuw %"class.absl::str_format_internal::FormatSinkImpl", ptr %7, i32 0, i32 2
  %18 = load ptr, ptr %17, align 8, !tbaa !49
  %19 = getelementptr inbounds nuw i8, ptr %18, i64 %16
  store ptr %19, ptr %17, align 8, !tbaa !49
  ret void
}

; Function Attrs: mustprogress nounwind uwtable
define linkonce_odr dso_local noundef i64 @_ZNK4absl19str_format_internal14FormatSinkImpl5AvailEv(ptr noundef nonnull align 8 dereferenceable(1056) %0) #3 comdat align 2 {
  %2 = alloca ptr, align 8
  store ptr %0, ptr %2, align 8, !tbaa !7
  %3 = load ptr, ptr %2, align 8
  %4 = getelementptr inbounds nuw %"class.absl::str_format_internal::FormatSinkImpl", ptr %3, i32 0, i32 3
  %5 = getelementptr inbounds [1024 x i8], ptr %4, i64 0, i64 0
  %6 = getelementptr inbounds nuw i8, ptr %5, i64 1024
  %7 = getelementptr inbounds nuw %"class.absl::str_format_internal::FormatSinkImpl", ptr %3, i32 0, i32 2
  %8 = load ptr, ptr %7, align 8, !tbaa !49
  %9 = ptrtoint ptr %6 to i64
  %10 = ptrtoint ptr %8 to i64
  %11 = sub i64 %9, %10
  ret i64 %11
}

; Function Attrs: mustprogress nounwind uwtable
define linkonce_odr dso_local noundef zeroext i1 @_ZN4absl19str_format_internal13FlagsContainsENS0_5FlagsES1_(i8 noundef zeroext %0, i8 noundef zeroext %1) #3 comdat {
  %3 = alloca i8, align 1
  %4 = alloca i8, align 1
  store i8 %0, ptr %3, align 1, !tbaa !13
  store i8 %1, ptr %4, align 1, !tbaa !13
  %5 = load i8, ptr %3, align 1, !tbaa !13
  %6 = zext i8 %5 to i32
  %7 = load i8, ptr %4, align 1, !tbaa !13
  %8 = zext i8 %7 to i32
  %9 = and i32 %6, %8
  %10 = load i8, ptr %4, align 1, !tbaa !13
  %11 = zext i8 %10 to i32
  %12 = icmp eq i32 %9, %11
  ret i1 %12
}

; Function Attrs: inlinehint mustprogress nounwind uwtable
define linkonce_odr dso_local noundef i64 @_ZN4absl19str_format_internal6ExcessEmm(i64 noundef %0, i64 noundef %1) #9 comdat {
  %3 = alloca i64, align 8
  %4 = alloca i64, align 8
  store i64 %0, ptr %3, align 8, !tbaa !26
  store i64 %1, ptr %4, align 8, !tbaa !26
  %5 = load i64, ptr %3, align 8, !tbaa !26
  %6 = load i64, ptr %4, align 8, !tbaa !26
  %7 = icmp ult i64 %5, %6
  br i1 %7, label %8, label %12

8:                                                ; preds = %2
  %9 = load i64, ptr %4, align 8, !tbaa !26
  %10 = load i64, ptr %3, align 8, !tbaa !26
  %11 = sub i64 %9, %10
  br label %13

12:                                               ; preds = %2
  br label %13

13:                                               ; preds = %12, %8
  %14 = phi i64 [ %11, %8 ], [ 0, %12 ]
  ret i64 %14
}

; Function Attrs: mustprogress uwtable
define linkonce_odr dso_local void @_ZN4absl19str_format_internal14FormatSinkImpl6AppendEmc(ptr noundef nonnull align 8 dereferenceable(1056) %0, i64 noundef %1, i8 noundef signext %2) #0 comdat align 2 {
  %4 = alloca ptr, align 8
  %5 = alloca i64, align 8
  %6 = alloca i8, align 1
  %7 = alloca %class.anon, align 8
  store ptr %0, ptr %4, align 8, !tbaa !7
  store i64 %1, ptr %5, align 8, !tbaa !26
  store i8 %2, ptr %6, align 1, !tbaa !4
  %8 = load ptr, ptr %4, align 8
  %9 = load i64, ptr %5, align 8, !tbaa !26
  %10 = icmp eq i64 %9, 0
  br i1 %10, label %11, label %12

11:                                               ; preds = %3
  br label %34

12:                                               ; preds = %3
  %13 = load i64, ptr %5, align 8, !tbaa !26
  %14 = getelementptr inbounds nuw %"class.absl::str_format_internal::FormatSinkImpl", ptr %8, i32 0, i32 1
  %15 = load i64, ptr %14, align 8, !tbaa !45
  %16 = add i64 %15, %13
  store i64 %16, ptr %14, align 8, !tbaa !45
  call void @llvm.lifetime.start.p0(i64 16, ptr %7) #16
  %17 = getelementptr inbounds nuw %class.anon, ptr %7, i32 0, i32 0
  store ptr %8, ptr %17, align 8, !tbaa !130
  %18 = getelementptr inbounds nuw %class.anon, ptr %7, i32 0, i32 1
  store ptr %6, ptr %18, align 8, !tbaa !35
  br label %19

19:                                               ; preds = %31, %12
  %20 = load i64, ptr %5, align 8, !tbaa !26
  %21 = call noundef i64 @_ZNK4absl19str_format_internal14FormatSinkImpl5AvailEv(ptr noundef nonnull align 8 dereferenceable(1056) %8)
  %22 = icmp ugt i64 %20, %21
  br i1 %22, label %23, label %32

23:                                               ; preds = %19
  %24 = call noundef i64 @_ZNK4absl19str_format_internal14FormatSinkImpl5AvailEv(ptr noundef nonnull align 8 dereferenceable(1056) %8)
  %25 = load i64, ptr %5, align 8, !tbaa !26
  %26 = sub i64 %25, %24
  store i64 %26, ptr %5, align 8, !tbaa !26
  %27 = call noundef i64 @_ZNK4absl19str_format_internal14FormatSinkImpl5AvailEv(ptr noundef nonnull align 8 dereferenceable(1056) %8)
  %28 = icmp ugt i64 %27, 0
  br i1 %28, label %29, label %31

29:                                               ; preds = %23
  %30 = call noundef i64 @_ZNK4absl19str_format_internal14FormatSinkImpl5AvailEv(ptr noundef nonnull align 8 dereferenceable(1056) %8)
  call void @_ZZN4absl19str_format_internal14FormatSinkImpl6AppendEmcENKUlmE_clEm(ptr noundef nonnull align 8 dereferenceable(16) %7, i64 noundef %30)
  br label %31

31:                                               ; preds = %29, %23
  call void @_ZN4absl19str_format_internal14FormatSinkImpl5FlushEv(ptr noundef nonnull align 8 dereferenceable(1056) %8)
  br label %19, !llvm.loop !132

32:                                               ; preds = %19
  %33 = load i64, ptr %5, align 8, !tbaa !26
  call void @_ZZN4absl19str_format_internal14FormatSinkImpl6AppendEmcENKUlmE_clEm(ptr noundef nonnull align 8 dereferenceable(16) %7, i64 noundef %33)
  call void @llvm.lifetime.end.p0(i64 16, ptr %7) #16
  br label %34

34:                                               ; preds = %32, %11
  ret void
}

; Function Attrs: mustprogress uwtable
define linkonce_odr dso_local noundef zeroext i1 @_ZNK4absl19str_format_internal24FormatConversionSpecImpl13has_left_flagEv(ptr noundef nonnull align 4 dereferenceable(12) %0) #0 comdat align 2 {
  %2 = alloca ptr, align 8
  store ptr %0, ptr %2, align 8, !tbaa !19
  %3 = load ptr, ptr %2, align 8
  %4 = getelementptr inbounds nuw %"class.absl::str_format_internal::FormatConversionSpecImpl", ptr %3, i32 0, i32 1
  %5 = load i8, ptr %4, align 1, !tbaa !44
  %6 = call noundef zeroext i1 @_ZN4absl19str_format_internal13FlagsContainsENS0_5FlagsES1_(i8 noundef zeroext %5, i8 noundef zeroext 1)
  ret i1 %6
}

; Function Attrs: mustprogress uwtable
define internal void @_ZN4absl19str_format_internal12_GLOBAL__N_113ReducePaddingEmPm(i64 noundef %0, ptr noundef %1) #0 {
  %3 = alloca i64, align 8
  %4 = alloca ptr, align 8
  store i64 %0, ptr %3, align 8, !tbaa !26
  store ptr %1, ptr %4, align 8, !tbaa !128
  %5 = load i64, ptr %3, align 8, !tbaa !26
  %6 = load ptr, ptr %4, align 8, !tbaa !128
  %7 = load i64, ptr %6, align 8, !tbaa !26
  %8 = call noundef i64 @_ZN4absl19str_format_internal6ExcessEmm(i64 noundef %5, i64 noundef %7)
  %9 = load ptr, ptr %4, align 8, !tbaa !128
  store i64 %8, ptr %9, align 8, !tbaa !26
  ret void
}

; Function Attrs: mustprogress nounwind uwtable
define linkonce_odr dso_local noundef i32 @_ZNK4absl19str_format_internal24FormatConversionSpecImpl5widthEv(ptr noundef nonnull align 4 dereferenceable(12) %0) #3 comdat align 2 {
  %2 = alloca ptr, align 8
  store ptr %0, ptr %2, align 8, !tbaa !19
  %3 = load ptr, ptr %2, align 8
  %4 = getelementptr inbounds nuw %"class.absl::str_format_internal::FormatConversionSpecImpl", ptr %3, i32 0, i32 3
  %5 = load i32, ptr %4, align 4, !tbaa !127
  ret i32 %5
}

; Function Attrs: mustprogress uwtable
define internal noundef zeroext i1 @_ZN4absl19str_format_internal12_GLOBAL__N_115ConvertCharImplEcNS0_24FormatConversionSpecImplEPNS0_14FormatSinkImplE(i8 noundef signext %0, i64 %1, i32 %2, ptr noundef %3) #0 {
  %5 = alloca %"class.absl::str_format_internal::FormatConversionSpecImpl", align 4
  %6 = alloca { i64, i32 }, align 4
  %7 = alloca i8, align 1
  %8 = alloca ptr, align 8
  %9 = alloca i64, align 8
  %10 = getelementptr inbounds nuw { i64, i32 }, ptr %6, i32 0, i32 0
  store i64 %1, ptr %10, align 4
  %11 = getelementptr inbounds nuw { i64, i32 }, ptr %6, i32 0, i32 1
  store i32 %2, ptr %11, align 4
  call void @llvm.memcpy.p0.p0.i64(ptr align 4 %5, ptr align 4 %6, i64 12, i1 false)
  store i8 %0, ptr %7, align 1, !tbaa !4
  store ptr %3, ptr %8, align 8, !tbaa !7
  call void @llvm.lifetime.start.p0(i64 8, ptr %9) #16
  store i64 0, ptr %9, align 8, !tbaa !26
  %12 = call noundef i32 @_ZNK4absl19str_format_internal24FormatConversionSpecImpl5widthEv(ptr noundef nonnull align 4 dereferenceable(12) %5)
  %13 = icmp sge i32 %12, 0
  br i1 %13, label %14, label %17

14:                                               ; preds = %4
  %15 = call noundef i32 @_ZNK4absl19str_format_internal24FormatConversionSpecImpl5widthEv(ptr noundef nonnull align 4 dereferenceable(12) %5)
  %16 = sext i32 %15 to i64
  store i64 %16, ptr %9, align 8, !tbaa !26
  br label %17

17:                                               ; preds = %14, %4
  call void @_ZN4absl19str_format_internal12_GLOBAL__N_113ReducePaddingEmPm(i64 noundef 1, ptr noundef %9)
  %18 = call noundef zeroext i1 @_ZNK4absl19str_format_internal24FormatConversionSpecImpl13has_left_flagEv(ptr noundef nonnull align 4 dereferenceable(12) %5)
  br i1 %18, label %22, label %19

19:                                               ; preds = %17
  %20 = load ptr, ptr %8, align 8, !tbaa !7
  %21 = load i64, ptr %9, align 8, !tbaa !26
  call void @_ZN4absl19str_format_internal14FormatSinkImpl6AppendEmc(ptr noundef nonnull align 8 dereferenceable(1056) %20, i64 noundef %21, i8 noundef signext 32)
  br label %22

22:                                               ; preds = %19, %17
  %23 = load ptr, ptr %8, align 8, !tbaa !7
  %24 = load i8, ptr %7, align 1, !tbaa !4
  call void @_ZN4absl19str_format_internal14FormatSinkImpl6AppendEmc(ptr noundef nonnull align 8 dereferenceable(1056) %23, i64 noundef 1, i8 noundef signext %24)
  %25 = call noundef zeroext i1 @_ZNK4absl19str_format_internal24FormatConversionSpecImpl13has_left_flagEv(ptr noundef nonnull align 4 dereferenceable(12) %5)
  br i1 %25, label %26, label %29

26:                                               ; preds = %22
  %27 = load ptr, ptr %8, align 8, !tbaa !7
  %28 = load i64, ptr %9, align 8, !tbaa !26
  call void @_ZN4absl19str_format_internal14FormatSinkImpl6AppendEmc(ptr noundef nonnull align 8 dereferenceable(1056) %27, i64 noundef %28, i8 noundef signext 32)
  br label %29

29:                                               ; preds = %26, %22
  call void @llvm.lifetime.end.p0(i64 8, ptr %9) #16
  ret i1 true
}