; Function Attrs: mustprogress uwtable
define internal fastcc void @_ZN4absl19str_format_internal12_GLOBAL__N_115ConvertCharImplEcNS0_24FormatConversionSpecImplEPNS0_14FormatSinkImplE(i8 noundef signext %0, i64 %1, ptr noundef %2) unnamed_addr #0 {
  %4 = tail call i64 @llvm.smax.i64(i64 %1, i64 0)
  %spec.select = lshr i64 %4, 32
  %5 = tail call noundef i64 @llvm.usub.sat.i64(i64 %spec.select, i64 1)
  %6 = and i64 %1, 256
  %7 = icmp ne i64 %6, 0
  %8 = icmp slt i64 %1, 8589934592
  %or.cond = or i1 %8, %7
  br i1 %or.cond, label %._ZN4absl19str_format_internal14FormatSinkImpl6AppendEmc.exit_crit_edge, label %9

._ZN4absl19str_format_internal14FormatSinkImpl6AppendEmc.exit_crit_edge: ; preds = %3
  %.phi.trans.insert = getelementptr inbounds nuw i8, ptr %2, i64 24
  %.pre = load ptr, ptr %.phi.trans.insert, align 8, !tbaa !19
  br label %_ZN4absl19str_format_internal14FormatSinkImpl6AppendEmc.exit

9:                                                ; preds = %3
  %10 = getelementptr inbounds nuw i8, ptr %2, i64 16
  %11 = load i64, ptr %10, align 8, !tbaa !16
  %12 = add i64 %11, %5
  store i64 %12, ptr %10, align 8, !tbaa !16
  %13 = getelementptr inbounds nuw i8, ptr %2, i64 1056
  %14 = getelementptr inbounds nuw i8, ptr %2, i64 24
  %15 = ptrtoint ptr %13 to i64
  %16 = load ptr, ptr %14, align 8, !tbaa !19
  %17 = ptrtoint ptr %16 to i64
  %18 = sub i64 %15, %17
  %19 = icmp ugt i64 %5, %18
  br i1 %19, label %.lr.ph.i, label %._crit_edge.i

.lr.ph.i:                                         ; preds = %9
  %20 = getelementptr inbounds nuw i8, ptr %2, i64 32
  %21 = ptrtoint ptr %20 to i64
  %22 = getelementptr inbounds nuw i8, ptr %2, i64 8
  br label %23

23:                                               ; preds = %30, %.lr.ph.i
  %24 = phi i64 [ %18, %.lr.ph.i ], [ 1024, %30 ]
  %25 = phi ptr [ %16, %.lr.ph.i ], [ %20, %30 ]
  %.010.i = phi i64 [ %5, %.lr.ph.i ], [ %26, %30 ]
  %26 = sub nuw i64 %.010.i, %24
  %.not.i = icmp eq ptr %13, %25
  br i1 %.not.i, label %30, label %27

27:                                               ; preds = %23
  tail call void @llvm.memset.p0.i64(ptr align 1 %25, i8 32, i64 %24, i1 false)
  %28 = load ptr, ptr %14, align 8, !tbaa !19
  %29 = getelementptr inbounds nuw i8, ptr %28, i64 %24
  store ptr %29, ptr %14, align 8, !tbaa !19
  %.pre.i = ptrtoint ptr %29 to i64
  br label %30

30:                                               ; preds = %27, %23
  %.pre-phi.i = phi i64 [ %.pre.i, %27 ], [ %15, %23 ]
  %31 = sub i64 %.pre-phi.i, %21
  %32 = load ptr, ptr %22, align 8, !tbaa !20
  %33 = load ptr, ptr %2, align 8, !tbaa !21
  tail call void %32(ptr noundef %33, i64 %31, ptr nonnull %20)
  store ptr %20, ptr %14, align 8, !tbaa !19
  %34 = icmp ugt i64 %26, 1024
  br i1 %34, label %23, label %._crit_edge.i, !llvm.loop !22

._crit_edge.i:                                    ; preds = %30, %9
  %.0.lcssa.i = phi i64 [ %5, %9 ], [ %26, %30 ]
  %.lcssa.i = phi ptr [ %16, %9 ], [ %20, %30 ]
  tail call void @llvm.memset.p0.i64(ptr align 1 %.lcssa.i, i8 32, i64 %.0.lcssa.i, i1 false)
  %35 = load ptr, ptr %14, align 8, !tbaa !19
  %36 = getelementptr inbounds nuw i8, ptr %35, i64 %.0.lcssa.i
  store ptr %36, ptr %14, align 8, !tbaa !19
  br label %_ZN4absl19str_format_internal14FormatSinkImpl6AppendEmc.exit

_ZN4absl19str_format_internal14FormatSinkImpl6AppendEmc.exit: ; preds = %._ZN4absl19str_format_internal14FormatSinkImpl6AppendEmc.exit_crit_edge, %._crit_edge.i
  %37 = phi ptr [ %.pre, %._ZN4absl19str_format_internal14FormatSinkImpl6AppendEmc.exit_crit_edge ], [ %36, %._crit_edge.i ]
  %38 = getelementptr inbounds nuw i8, ptr %2, i64 16
  %39 = load i64, ptr %38, align 8, !tbaa !16
  %40 = add i64 %39, 1
  store i64 %40, ptr %38, align 8, !tbaa !16
  %41 = getelementptr inbounds nuw i8, ptr %2, i64 1056
  %42 = getelementptr inbounds nuw i8, ptr %2, i64 24
  %43 = ptrtoint ptr %41 to i64
  %44 = icmp eq ptr %41, %37
  br i1 %44, label %_ZN4absl19str_format_internal14FormatSinkImpl6AppendEmc.exit11.loopexit, label %_ZN4absl19str_format_internal14FormatSinkImpl6AppendEmc.exit11

_ZN4absl19str_format_internal14FormatSinkImpl6AppendEmc.exit11.loopexit: ; preds = %_ZN4absl19str_format_internal14FormatSinkImpl6AppendEmc.exit
  %45 = getelementptr inbounds nuw i8, ptr %2, i64 8
  %46 = getelementptr inbounds nuw i8, ptr %2, i64 32
  %47 = load ptr, ptr %45, align 8, !tbaa !20
  %48 = load ptr, ptr %2, align 8, !tbaa !21
  tail call void %47(ptr noundef %48, i64 1024, ptr nonnull %46)
  store ptr %46, ptr %42, align 8, !tbaa !19
  br label %_ZN4absl19str_format_internal14FormatSinkImpl6AppendEmc.exit11

_ZN4absl19str_format_internal14FormatSinkImpl6AppendEmc.exit11: ; preds = %_ZN4absl19str_format_internal14FormatSinkImpl6AppendEmc.exit11.loopexit, %_ZN4absl19str_format_internal14FormatSinkImpl6AppendEmc.exit
  %.lcssa.i5 = phi ptr [ %37, %_ZN4absl19str_format_internal14FormatSinkImpl6AppendEmc.exit ], [ %46, %_ZN4absl19str_format_internal14FormatSinkImpl6AppendEmc.exit11.loopexit ]
  tail call void @llvm.memset.p0.i64(ptr noundef nonnull align 1 dereferenceable(1) %.lcssa.i5, i8 %0, i64 1, i1 false)
  %49 = load ptr, ptr %42, align 8, !tbaa !19
  %50 = getelementptr inbounds nuw i8, ptr %49, i64 1
  store ptr %50, ptr %42, align 8, !tbaa !19
  %51 = icmp sgt i64 %1, 8589934591
  %or.cond26.not = and i1 %51, %7
  br i1 %or.cond26.not, label %52, label %_ZN4absl19str_format_internal14FormatSinkImpl6AppendEmc.exit20

52:                                               ; preds = %_ZN4absl19str_format_internal14FormatSinkImpl6AppendEmc.exit11
  %53 = load i64, ptr %38, align 8, !tbaa !16
  %54 = add i64 %53, %5
  store i64 %54, ptr %38, align 8, !tbaa !16
  %55 = ptrtoint ptr %50 to i64
  %56 = sub i64 %43, %55
  %57 = icmp ugt i64 %5, %56
  br i1 %57, label %.lr.ph.i15, label %._crit_edge.i12

.lr.ph.i15:                                       ; preds = %52
  %58 = getelementptr inbounds nuw i8, ptr %2, i64 32
  %59 = ptrtoint ptr %58 to i64
  %60 = getelementptr inbounds nuw i8, ptr %2, i64 8
  br label %61

61:                                               ; preds = %68, %.lr.ph.i15
  %62 = phi i64 [ %56, %.lr.ph.i15 ], [ 1024, %68 ]
  %63 = phi ptr [ %50, %.lr.ph.i15 ], [ %58, %68 ]
  %.010.i16 = phi i64 [ %5, %.lr.ph.i15 ], [ %64, %68 ]
  %64 = sub nuw i64 %.010.i16, %62
  %.not.i17 = icmp eq ptr %41, %63
  br i1 %.not.i17, label %68, label %65

65:                                               ; preds = %61
  tail call void @llvm.memset.p0.i64(ptr nonnull align 1 %63, i8 32, i64 %62, i1 false)
  %66 = load ptr, ptr %42, align 8, !tbaa !19
  %67 = getelementptr inbounds nuw i8, ptr %66, i64 %62
  store ptr %67, ptr %42, align 8, !tbaa !19
  %.pre.i18 = ptrtoint ptr %67 to i64
  br label %68

68:                                               ; preds = %65, %61
  %.pre-phi.i19 = phi i64 [ %.pre.i18, %65 ], [ %43, %61 ]
  %69 = sub i64 %.pre-phi.i19, %59
  %70 = load ptr, ptr %60, align 8, !tbaa !20
  %71 = load ptr, ptr %2, align 8, !tbaa !21
  tail call void %70(ptr noundef %71, i64 %69, ptr nonnull %58)
  store ptr %58, ptr %42, align 8, !tbaa !19
  %72 = icmp ugt i64 %64, 1024
  br i1 %72, label %61, label %._crit_edge.i12, !llvm.loop !22

._crit_edge.i12:                                  ; preds = %68, %52
  %.0.lcssa.i13 = phi i64 [ %5, %52 ], [ %64, %68 ]
  %.lcssa.i14 = phi ptr [ %50, %52 ], [ %58, %68 ]
  tail call void @llvm.memset.p0.i64(ptr nonnull align 1 %.lcssa.i14, i8 32, i64 %.0.lcssa.i13, i1 false)
  %73 = load ptr, ptr %42, align 8, !tbaa !19
  %74 = getelementptr inbounds nuw i8, ptr %73, i64 %.0.lcssa.i13
  store ptr %74, ptr %42, align 8, !tbaa !19
  br label %_ZN4absl19str_format_internal14FormatSinkImpl6AppendEmc.exit20

_ZN4absl19str_format_internal14FormatSinkImpl6AppendEmc.exit20: ; preds = %._crit_edge.i12, %_ZN4absl19str_format_internal14FormatSinkImpl6AppendEmc.exit11
  ret void
}